target datalayout = "e-m:e-p270:32:32-p271:32:32-p272:64:64-i64:64-i128:128-f80:128-n8:16:32:64-S128"
target triple = "x86_64-pc-linux-gnu"

%"class.std::__cxx11::basic_string" = type { %"struct.std::__cxx11::basic_string<char>::_Alloc_hider", i64, %union.anon }
%"struct.std::__cxx11::basic_string<char>::_Alloc_hider" = type { ptr }
%union.anon = type { i64, [8 x i8] }
%"class.std::basic_ostream.base" = type { ptr }
%"class.std::__cxx11::basic_stringbuf" = type { %"class.std::basic_streambuf", i32, %"class.std::__cxx11::basic_string" }
%"class.std::basic_streambuf" = type { ptr, ptr, ptr, ptr, ptr, ptr, ptr, %"class.std::locale" }
%"class.std::locale" = type { ptr }
%"class.std::basic_ios" = type { %"class.std::ios_base", ptr, i8, i8, ptr, ptr, ptr, ptr }
%"class.std::ios_base" = type { ptr, i64, i64, i32, i32, i32, ptr, %"struct.std::ios_base::_Words", [8 x %"struct.std::ios_base::_Words"], i32, ptr, %"class.std::locale" }
%"struct.std::ios_base::_Words" = type { ptr, i64 }
%"class.xgboost::TreeGenerator" = type <{ ptr, ptr, %"class.std::__cxx11::basic_stringstream", i8, [7 x i8] }>
%"class.std::__cxx11::basic_stringstream" = type { %"class.std::basic_iostream.base", %"class.std::__cxx11::basic_stringbuf", %"class.std::basic_ios" }
%"class.std::basic_iostream.base" = type { %"class.std::basic_istream.base", %"class.std::basic_ostream.base" }
%"class.std::basic_istream.base" = type { ptr, i64 }

; Function Attrs: mustprogress uwtable
define linkonce_odr void @_ZN7xgboost13TreeGeneratorC2ERKNS_10FeatureMapEb(ptr noundef nonnull align 8 dereferenceable(409) %0, ptr noundef nonnull align 8 dereferenceable(48) %1, i1 noundef zeroext %2) unnamed_addr #6 comdat align 2 {
  %4 = alloca ptr, align 8
  %5 = alloca ptr, align 8
  %6 = alloca i8, align 1
  store ptr %0, ptr %4, align 8, !tbaa !129
  store ptr %1, ptr %5, align 8, !tbaa !122
  %7 = zext i1 %2 to i8
  store i8 %7, ptr %6, align 1, !tbaa !124
  %8 = load ptr, ptr %4, align 8
  store ptr getelementptr inbounds inrange(-16, 96) ({ [14 x ptr] }, ptr @_ZTVN7xgboost13TreeGeneratorE, i32 0, i32 0, i32 2), ptr %8, align 8, !tbaa !51
  %9 = getelementptr inbounds nuw %"class.xgboost::TreeGenerator", ptr %8, i32 0, i32 1
  %10 = load ptr, ptr %5, align 8, !tbaa !122
  store ptr %10, ptr %9, align 8, !tbaa !122
  %11 = getelementptr inbounds nuw %"class.xgboost::TreeGenerator", ptr %8, i32 0, i32 2
  call void @_ZNSt7__cxx1118basic_stringstreamIcSt11char_traitsIcESaIcEEC1Ev(ptr noundef nonnull align 8 dereferenceable(128) %11)
  %12 = getelementptr inbounds nuw %"class.xgboost::TreeGenerator", ptr %8, i32 0, i32 3
  %13 = load i8, ptr %6, align 1, !tbaa !124, !range !127, !noundef !128
  %14 = trunc i8 %13 to i1
  %15 = zext i1 %14 to i8
  store i8 %15, ptr %12, align 8, !tbaa !1101
  ret void
}

; Function Attrs: mustprogress uwtable
define linkonce_odr void @_ZN7xgboost13TextGeneratorC2ERKNS_10FeatureMapEb(ptr noundef nonnull align 8 dereferenceable(409) %0, ptr noundef nonnull align 8 dereferenceable(48) %1, i1 noundef zeroext %2) unnamed_addr #6 comdat align 2 {
  %4 = alloca ptr, align 8
  %5 = alloca ptr, align 8
  %6 = alloca i8, align 1
  store ptr %0, ptr %4, align 8, !tbaa !1099
  store ptr %1, ptr %5, align 8, !tbaa !122
  %7 = zext i1 %2 to i8
  store i8 %7, ptr %6, align 1, !tbaa !124
  %8 = load ptr, ptr %4, align 8
  %9 = load ptr, ptr %5, align 8, !tbaa !122
  %10 = load i8, ptr %6, align 1, !tbaa !124, !range !127, !noundef !128
  %11 = trunc i8 %10 to i1
  call void @_ZN7xgboost13TreeGeneratorC2ERKNS_10FeatureMapEb(ptr noundef nonnull align 8 dereferenceable(409) %8, ptr noundef nonnull align 8 dereferenceable(48) %9, i1 noundef zeroext %11)
  store ptr getelementptr inbounds inrange(-16, 96) ({ [14 x ptr] }, ptr @_ZTVN7xgboost13TextGeneratorE, i32 0, i32 0, i32 2), ptr %8, align 8, !tbaa !51
  ret void
}

; Function Attrs: inlinehint mustprogress uwtable
define internal noundef ptr @"_ZNK7xgboost3$_0clERKNS_10FeatureMapERKNSt7__cxx1112basic_stringIcSt11char_traitsIcESaIcEEEb"(ptr noundef nonnull align 1 dereferenceable(1) %0, ptr noundef nonnull align 8 dereferenceable(48) %1, ptr noundef nonnull align 8 dereferenceable(32) %2, i1 noundef zeroext %3) #9 align 2 personality ptr @__gxx_personality_v0 {
  %5 = alloca ptr, align 8
  %6 = alloca ptr, align 8
  %7 = alloca ptr, align 8
  %8 = alloca i8, align 1
  %9 = alloca ptr, align 8
  %10 = alloca i32, align 4
  store ptr %0, ptr %5, align 8, !tbaa !64
  store ptr %1, ptr %6, align 8, !tbaa !122
  store ptr %2, ptr %7, align 8, !tbaa !8
  %11 = zext i1 %3 to i8
  store i8 %11, ptr %8, align 1, !tbaa !124
  %12 = call noalias noundef nonnull ptr @_Znwm(i64 noundef 416) #29
  %13 = load ptr, ptr %6, align 8, !tbaa !122
  %14 = load i8, ptr %8, align 1, !tbaa !124, !range !127, !noundef !128
  %15 = trunc i8 %14 to i1
  invoke void @_ZN7xgboost13TextGeneratorC2ERKNS_10FeatureMapEb(ptr noundef nonnull align 8 dereferenceable(409) %12, ptr noundef nonnull align 8 dereferenceable(48) %13, i1 noundef zeroext %15)
          to label %16 unwind label %17

16:                                               ; preds = %4
  ret ptr %12

17:                                               ; preds = %4
  %18 = landingpad { ptr, i32 }
          cleanup
  %19 = extractvalue { ptr, i32 } %18, 0
  store ptr %19, ptr %9, align 8
  %20 = extractvalue { ptr, i32 } %18, 1
  store i32 %20, ptr %10, align 4
  call void @_ZdlPvm(ptr noundef %12, i64 noundef 416) #28
  br label %21

21:                                               ; preds = %17
  %22 = load ptr, ptr %9, align 8
  %23 = load i32, ptr %10, align 4
  %24 = insertvalue { ptr, i32 } poison, ptr %22, 0
  %25 = insertvalue { ptr, i32 } %24, i32 %23, 1
  resume { ptr, i32 } %25
}

; Function Attrs: mustprogress nounwind uwtable
define linkonce_odr noundef ptr @_ZNKSt9_Any_data9_M_accessEv(ptr noundef nonnull align 8 dereferenceable(16) %0) #5 comdat align 2 {
  %2 = alloca ptr, align 8
  store ptr %0, ptr %2, align 8, !tbaa !1092
  %3 = load ptr, ptr %2, align 8
  %4 = getelementptr inbounds [16 x i8], ptr %3, i64 0, i64 0
  ret ptr %4
}

; Function Attrs: mustprogress uwtable
define internal noundef ptr @"_ZSt13__invoke_implIPN7xgboost13TextGeneratorERNS0_3$_0EJRKNS0_10FeatureMapENSt7__cxx1112basic_stringIcSt11char_traitsIcESaIcEEEbEET_St14__invoke_otherOT0_DpOT1_"(ptr noundef nonnull align 1 dereferenceable(1) %0, ptr noundef nonnull align 8 dereferenceable(48) %1, ptr noundef nonnull align 8 dereferenceable(32) %2, ptr noundef nonnull align 1 dereferenceable(1) %3) #6 {
  %5 = alloca ptr, align 8
  %6 = alloca ptr, align 8
  %7 = alloca ptr, align 8
  %8 = alloca ptr, align 8
  store ptr %0, ptr %5, align 8, !tbaa !64
  store ptr %1, ptr %6, align 8, !tbaa !122
  store ptr %2, ptr %7, align 8, !tbaa !8
  store ptr %3, ptr %8, align 8, !tbaa !156
  %9 = load ptr, ptr %5, align 8, !tbaa !64
  %10 = load ptr, ptr %6, align 8, !tbaa !122
  %11 = load ptr, ptr %7, align 8, !tbaa !8
  %12 = load ptr, ptr %8, align 8, !tbaa !156
  %13 = load i8, ptr %12, align 1, !tbaa !124, !range !127, !noundef !128
  %14 = trunc i8 %13 to i1
  %15 = call noundef ptr @"_ZNK7xgboost3$_0clERKNS_10FeatureMapERKNSt7__cxx1112basic_stringIcSt11char_traitsIcESaIcEEEb"(ptr noundef nonnull align 1 dereferenceable(1) %9, ptr noundef nonnull align 8 dereferenceable(48) %10, ptr noundef nonnull align 8 dereferenceable(32) %11, i1 noundef zeroext %14)
  ret ptr %15
}

; Function Attrs: mustprogress nounwind uwtable
define internal noundef nonnull align 1 dereferenceable(1) ptr @"_ZNKSt9_Any_data9_M_accessIN7xgboost3$_0EEERKT_v"(ptr noundef nonnull align 8 dereferenceable(16) %0) #5 align 2 {
  %2 = alloca ptr, align 8
  store ptr %0, ptr %2, align 8, !tbaa !1092
  %3 = load ptr, ptr %2, align 8
  %4 = call noundef ptr @_ZNKSt9_Any_data9_M_accessEv(ptr noundef nonnull align 8 dereferenceable(16) %3) #3
  ret ptr %4
}

; Function Attrs: mustprogress uwtable
define internal noundef ptr @"_ZSt10__invoke_rIPN7xgboost13TreeGeneratorERNS0_3$_0EJRKNS0_10FeatureMapENSt7__cxx1112basic_stringIcSt11char_traitsIcESaIcEEEbEENSt9enable_ifIX16is_invocable_r_vIT_T0_DpT1_EESF_E4typeEOSG_DpOSH_"(ptr noundef nonnull align 1 dereferenceable(1) %0, ptr noundef nonnull align 8 dereferenceable(48) %1, ptr noundef nonnull align 8 dereferenceable(32) %2, ptr noundef nonnull align 1 dereferenceable(1) %3) #6 {
  %5 = alloca ptr, align 8
  %6 = alloca ptr, align 8
  %7 = alloca ptr, align 8
  %8 = alloca ptr, align 8
  store ptr %0, ptr %5, align 8, !tbaa !64
  store ptr %1, ptr %6, align 8, !tbaa !122
  store ptr %2, ptr %7, align 8, !tbaa !8
  store ptr %3, ptr %8, align 8, !tbaa !156
  %9 = load ptr, ptr %5, align 8, !tbaa !64
  %10 = load ptr, ptr %6, align 8, !tbaa !122
  %11 = load ptr, ptr %7, align 8, !tbaa !8
  %12 = load ptr, ptr %8, align 8, !tbaa !156
  %13 = call noundef ptr @"_ZSt13__invoke_implIPN7xgboost13TextGeneratorERNS0_3$_0EJRKNS0_10FeatureMapENSt7__cxx1112basic_stringIcSt11char_traitsIcESaIcEEEbEET_St14__invoke_otherOT0_DpOT1_"(ptr noundef nonnull align 1 dereferenceable(1) %9, ptr noundef nonnull align 8 dereferenceable(48) %10, ptr noundef nonnull align 8 dereferenceable(32) %11, ptr noundef nonnull align 1 dereferenceable(1) %12)
  ret ptr %13
}

; Function Attrs: mustprogress nounwind uwtable
define internal noundef ptr @"_ZNSt14_Function_base13_Base_managerIN7xgboost3$_0EE14_M_get_pointerERKSt9_Any_data"(ptr noundef nonnull align 8 dereferenceable(16) %0) #5 align 2 {
  %2 = alloca ptr, align 8
  %3 = alloca ptr, align 8
  store ptr %0, ptr %2, align 8, !tbaa !1092
  call void @llvm.lifetime.start.p0(i64 8, ptr %3) #3
  %4 = load ptr, ptr %2, align 8, !tbaa !1092
  %5 = call noundef nonnull align 1 dereferenceable(1) ptr @"_ZNKSt9_Any_data9_M_accessIN7xgboost3$_0EEERKT_v"(ptr noundef nonnull align 8 dereferenceable(16) %4) #3
  store ptr %5, ptr %3, align 8, !tbaa !64
  %6 = load ptr, ptr %3, align 8, !tbaa !64
  call void @llvm.lifetime.end.p0(i64 8, ptr %3) #3
  ret ptr %6
}

; Function Attrs: mustprogress uwtable
define internal noundef ptr @"_ZNSt17_Function_handlerIFPN7xgboost13TreeGeneratorERKNS0_10FeatureMapENSt7__cxx1112basic_stringIcSt11char_traitsIcESaIcEEEbENS0_3$_0EE9_M_invokeERKSt9_Any_dataS5_OSB_Ob"(ptr noundef nonnull align 8 dereferenceable(16) %0, ptr noundef nonnull align 8 dereferenceable(48) %1, ptr noundef nonnull align 8 dereferenceable(32) %2, ptr noundef nonnull align 1 dereferenceable(1) %3) #6 align 2 {
  %5 = alloca ptr, align 8
  %6 = alloca ptr, align 8
  %7 = alloca ptr, align 8
  %8 = alloca ptr, align 8
  store ptr %0, ptr %5, align 8, !tbaa !1092
  store ptr %1, ptr %6, align 8, !tbaa !122
  store ptr %2, ptr %7, align 8, !tbaa !8
  store ptr %3, ptr %8, align 8, !tbaa !156
  %9 = load ptr, ptr %5, align 8, !tbaa !1092
  %10 = call noundef ptr @"_ZNSt14_Function_base13_Base_managerIN7xgboost3$_0EE14_M_get_pointerERKSt9_Any_data"(ptr noundef nonnull align 8 dereferenceable(16) %9) #3
  %11 = load ptr, ptr %6, align 8, !tbaa !122
  %12 = load ptr, ptr %7, align 8, !tbaa !8
  %13 = load ptr, ptr %8, align 8, !tbaa !156
  %14 = call noundef ptr @"_ZSt10__invoke_rIPN7xgboost13TreeGeneratorERNS0_3$_0EJRKNS0_10FeatureMapENSt7__cxx1112basic_stringIcSt11char_traitsIcESaIcEEEbEENSt9enable_ifIX16is_invocable_r_vIT_T0_DpT1_EESF_E4typeEOSG_DpOSH_"(ptr noundef nonnull align 1 dereferenceable(1) %10, ptr noundef nonnull align 8 dereferenceable(48) %11, ptr noundef nonnull align 8 dereferenceable(32) %12, ptr noundef nonnull align 1 dereferenceable(1) %13)
  ret ptr %14
}